; Function Attrs: nounwind uwtable
define ptr @l_Lean_Elab_Tactic_NormCast_proveEqUsingDown(ptr noundef %0, ptr noundef %1, ptr noundef %2, ptr noundef %3, ptr noundef %4, ptr noundef %5, ptr noundef %6) local_unnamed_addr #0 {
  %8 = ptrtoint ptr %1 to i64
  %9 = and i64 %8, 1
  %.not = icmp eq i64 %9, 0
  br i1 %.not, label %10, label %lean_inc.exit25

10:                                               ; preds = %7
  %.val.i = load i32, ptr %1, align 4, !tbaa !8
  %11 = icmp sgt i32 %.val.i, 0
  br i1 %11, label %12, label %14, !prof !11

12:                                               ; preds = %10
  %13 = add nuw i32 %.val.i, 1
  store i32 %13, ptr %1, align 4, !tbaa !8
  br label %lean_inc.exit25

14:                                               ; preds = %10
  %.not.i = icmp eq i32 %.val.i, 0
  br i1 %.not.i, label %lean_inc.exit25, label %15

15:                                               ; preds = %14
  tail call void @lean_inc_ref_cold(ptr noundef nonnull %1) #5
  br label %lean_inc.exit25

lean_inc.exit25:                                  ; preds = %15, %14, %12, %7
  %16 = ptrtoint ptr %0 to i64
  %17 = and i64 %16, 1
  %.not33 = icmp eq i64 %17, 0
  br i1 %.not33, label %18, label %lean_inc.exit24

18:                                               ; preds = %lean_inc.exit25
  %.val.i26 = load i32, ptr %0, align 4, !tbaa !8
  %19 = icmp sgt i32 %.val.i26, 0
  br i1 %19, label %20, label %22, !prof !11

20:                                               ; preds = %18
  %21 = add nuw i32 %.val.i26, 1
  store i32 %21, ptr %0, align 4, !tbaa !8
  br label %lean_inc.exit24

22:                                               ; preds = %18
  %.not.i27 = icmp eq i32 %.val.i26, 0
  br i1 %.not.i27, label %lean_inc.exit24, label %23

23:                                               ; preds = %22
  tail call void @lean_inc_ref_cold(ptr noundef nonnull %0) #5
  br label %lean_inc.exit24

lean_inc.exit24:                                  ; preds = %23, %22, %20, %lean_inc.exit25
  tail call void @lean_inc_heartbeat() #5
  %24 = tail call noalias ptr @mi_malloc_small(i64 noundef 40) #5
  %25 = icmp eq ptr %24, null
  br i1 %25, label %26, label %lean_alloc_closure.exit

26:                                               ; preds = %lean_inc.exit24
  tail call void @lean_internal_panic_out_of_memory() #6
  unreachable

lean_alloc_closure.exit:                          ; preds = %lean_inc.exit24
  %27 = getelementptr inbounds nuw i8, ptr %24, i64 4
  store i32 1, ptr %24, align 4, !tbaa !8
  store i32 -184549336, ptr %27, align 4
  %28 = getelementptr inbounds nuw i8, ptr %24, i64 8
  store ptr @l_Lean_Elab_Tactic_NormCast_proveEqUsingDown___lambda__1___boxed, ptr %28, align 8, !tbaa !4
  %29 = getelementptr inbounds nuw i8, ptr %24, i64 16
  store i16 8, ptr %29, align 8, !tbaa !18
  %30 = getelementptr inbounds nuw i8, ptr %24, i64 18
  store i16 2, ptr %30, align 2, !tbaa !18
  %31 = getelementptr inbounds nuw i8, ptr %24, i64 24
  store ptr %0, ptr %31, align 8, !tbaa !4
  %32 = getelementptr inbounds nuw i8, ptr %24, i64 32
  store ptr %1, ptr %32, align 8, !tbaa !4
  %33 = load ptr, ptr @l_Lean_Meta_NormCast_normCastExt, align 8, !tbaa !4
  %34 = getelementptr inbounds nuw i8, ptr %33, i64 16
  %35 = load ptr, ptr %34, align 8, !tbaa !4
  %36 = ptrtoint ptr %35 to i64
  %37 = and i64 %36, 1
  %.not34 = icmp eq i64 %37, 0
  br i1 %.not34, label %38, label %lean_inc.exit

38:                                               ; preds = %lean_alloc_closure.exit
  %.val.i29 = load i32, ptr %35, align 4, !tbaa !8
  %39 = icmp sgt i32 %.val.i29, 0
  br i1 %39, label %40, label %42, !prof !11

40:                                               ; preds = %38
  %41 = add nuw i32 %.val.i29, 1
  store i32 %41, ptr %35, align 4, !tbaa !8
  br label %lean_inc.exit

42:                                               ; preds = %38
  %.not.i30 = icmp eq i32 %.val.i29, 0
  br i1 %.not.i30, label %lean_inc.exit, label %43

43:                                               ; preds = %42
  tail call void @lean_inc_ref_cold(ptr noundef nonnull %35) #5
  br label %lean_inc.exit

lean_inc.exit:                                    ; preds = %43, %42, %40, %lean_alloc_closure.exit
  tail call void @lean_inc_heartbeat() #5
  %44 = tail call noalias ptr @mi_malloc_small(i64 noundef 48) #5
  %45 = icmp eq ptr %44, null
  br i1 %45, label %46, label %lean_alloc_closure.exit32

46:                                               ; preds = %lean_inc.exit
  tail call void @lean_internal_panic_out_of_memory() #6
  unreachable

lean_alloc_closure.exit32:                        ; preds = %lean_inc.exit
  %47 = getelementptr inbounds nuw i8, ptr %44, i64 4
  store i32 1, ptr %44, align 4, !tbaa !8
  store i32 -184549328, ptr %47, align 4
  %48 = getelementptr inbounds nuw i8, ptr %44, i64 8
  store ptr @l_Lean_Elab_Tactic_NormCast_proveEqUsingDown___lambda__2___boxed, ptr %48, align 8, !tbaa !4
  %49 = getelementptr inbounds nuw i8, ptr %44, i64 16
  store i16 8, ptr %49, align 8, !tbaa !18
  %50 = getelementptr inbounds nuw i8, ptr %44, i64 18
  store i16 3, ptr %50, align 2, !tbaa !18
  %51 = getelementptr inbounds nuw i8, ptr %44, i64 24
  store ptr %35, ptr %51, align 8, !tbaa !4
  %52 = getelementptr inbounds nuw i8, ptr %44, i64 32
  store ptr %0, ptr %52, align 8, !tbaa !4
  %53 = getelementptr inbounds nuw i8, ptr %44, i64 40
  store ptr %1, ptr %53, align 8, !tbaa !4
  %54 = load ptr, ptr @l_Lean_Elab_Tactic_NormCast_initFn____x40_Lean_Elab_Tactic_NormCast___hyg_5____closed__3, align 8, !tbaa !4
  %55 = load ptr, ptr @l_Lean_Elab_Tactic_NormCast_proveEqUsingDown___lambda__1___closed__1, align 8, !tbaa !4
  %56 = tail call ptr @l_Lean_withTraceNode___at_Lean_Elab_Tactic_NormCast_proveEqUsingDown___spec__1(ptr noundef %54, ptr noundef nonnull %24, ptr noundef nonnull %44, i8 noundef zeroext 1, ptr noundef %55, ptr noundef %2, ptr noundef %3, ptr noundef %4, ptr noundef %5, ptr noundef %6)
  ret ptr %56
}